(lp0
(dp1
Vdomain
p2
V.baidu.com
p3
sVname
p4
VBDUSS
p5
sVexpires
p6
V\u5468\u4e94, 03 \u5341\u6708 2025 07:35:53 GMT
p7
sVvalue
p8
V5CTVV4Q3NYYkthY3J2T3U2UTZ2OTZkemp2TkZaNnBhdnQxRThiaFp0flo5Wk5aSVFBQUFBJCQAAAAAAAAAAAEAAABOJZu6AAAAAAAAAAAAAAAAAAAAAAAAAAAAAAAAAAAAAAAAAAAAAAAAAAAAAAAAAAAAAAAAAAAAAAAAAAAAAAAAAAAAANlobFnZaGxZR0
p9
sVexpiry
p10
I1759476953
sVpath
p11
V/
p12
sVhttponly
p13
I01
sVsecure
p14
I00
sa(dp15
Vdomain
p16
V.index.baidu.com
p17
sVname
p18
VFP_UID
p19
sVexpires
p20
V\u5468\u516d, 31 \u5341\u4e8c\u6708 2050 00:00:00 GMT
p21
sVvalue
p22
V7b71de8b4c7be11fbdea7ee81e24bc75
p23
sVexpiry
p24
L2556057600L
sVpath
p25
g12
sVhttponly
p26
I00
sVsecure
p27
I00
sa(dp28
Vdomain
p29
Vindex.baidu.com
p30
sVname
p31
Vsearchtips
p32
sVexpires
p33
V\u5468\u56db, 12 \u4e03\u6708 2018 07:35:52 GMT
p34
sVvalue
p35
V1
p36
sVexpiry
p37
I1531380952
sVpath
p38
g12
sVhttponly
p39
I00
sVsecure
p40
I00
sa(dp41
Vdomain
p42
V.index.baidu.com
p43
sVname
p44
VHm_lpvt_d101ea4d2a5c67dab98251f0b5de24dc
p45
sVexpires
p46
V\u5468\u56db, 12 \u4e03\u6708 2018 07:35:52 GMT
p47
sVvalue
p48
V1500276952
p49
sVexpiry
p50
I1531380952
sVpath
p51
g12
sVhttponly
p52
I00
sVsecure
p53
I00
sa(dp54
Vdomain
p55
V.index.baidu.com
p56
sVname
p57
VHm_lvt_d101ea4d2a5c67dab98251f0b5de24dc
p58
sVexpires
p59
V\u5468\u4e8c, 17 \u4e03\u6708 2018 07:35:52 GMT
p60
sVvalue
p61
V1500274468,1500274630,1500274724,1500276952
p62
sVexpiry
p63
I1531812952
sVpath
p64
g12
sVhttponly
p65
I00
sVsecure
p66
I00
sa(dp67
Vdomain
p68
V.baidu.com
p69
sVname
p70
VBAIDUID
p71
sVexpires
p72
V\u5468\u4e8c, 17 \u4e03\u6708 2018 07:35:51 GMT
p73
sVvalue
p74
V713E3688F0B6FA2283DD4D9E52829497:FG=1
p75
sVexpiry
p76
I1531812951
sVpath
p77
g12
sVhttponly
p78
I00
sVsecure
p79
I00
sa.